Certificate:
    Data:
        Version: 3 (0x2)
        Serial Number:
            4d:13:6b:7f:01:0f:61:77:e9:1e:18:6a:cb:ba:c5:37
        Signature Algorithm: sha256WithRSAEncryption
        Issuer: CN=LeoVPN
        Validity
            Not Before: Oct 10 18:19:52 2020 GMT
            Not After : Jan 13 18:19:52 2023 GMT
        Subject: CN=vpnserver
        Subject Public Key Info:
            Public Key Algorithm: rsaEncryption
                RSA Public-Key: (2048 bit)
                Modulus:
                    00:be:d4:22:1f:01:60:4e:ad:3d:c3:33:7c:a2:4b:
                    94:7e:6a:d1:a5:05:1f:b1:80:6c:d4:bc:48:a9:29:
                    4f:0b:10:53:62:f9:a5:26:6b:76:31:3d:6d:12:d9:
                    f8:55:23:23:2c:de:47:33:b1:28:a5:ac:4e:60:08:
                    64:90:ce:57:59:4d:13:66:4f:fd:25:d5:e6:c5:55:
                    e6:b6:6e:fe:6a:c0:13:ec:f0:9f:77:0b:c5:99:58:
                    75:99:6b:e0:30:1f:e8:0d:91:0a:85:0c:e6:21:8a:
                    27:5a:77:74:4b:64:c3:0e:c2:a1:81:17:87:30:52:
                    dc:fa:28:46:f6:72:89:bb:21:0e:37:ff:61:70:55:
                    49:ba:c4:9f:db:f0:fc:03:f1:c6:d7:e0:5b:36:2a:
                    e2:59:d3:ba:fa:a3:7f:cc:e6:e5:bc:eb:ec:76:b5:
                    82:8c:51:e0:6f:2f:b2:27:e5:b9:5e:50:49:5e:d3:
                    40:11:57:70:32:c7:a4:22:09:c7:f1:db:69:3c:8a:
                    81:07:00:a2:59:02:41:57:31:a4:e3:7a:68:ec:20:
                    d4:d8:80:9f:b4:bf:30:43:59:1d:2d:eb:37:ec:2f:
                    35:7a:e7:ce:31:07:18:b6:da:d3:21:75:b5:8e:dc:
                    b9:ff:c8:74:74:b1:fd:da:b2:6f:6e:c4:eb:2c:8b:
                    1e:0d
                Exponent: 65537 (0x10001)
        X509v3 extensions:
            X509v3 Basic Constraints: 
                CA:FALSE
            X509v3 Subject Key Identifier: 
                A8:27:0D:1B:F2:37:4B:66:84:35:46:14:4E:93:EE:56:7C:64:50:C1
            X509v3 Authority Key Identifier: 
                keyid:D8:62:6A:79:B3:9A:57:E1:34:A6:FF:BA:85:5A:1E:CE:ED:C7:B7:94
                DirName:/CN=LeoVPN
                serial:40:08:4F:72:C2:2C:FF:36:FF:94:BC:94:62:B8:0D:15:A9:64:5B:0B

            X509v3 Extended Key Usage: 
                TLS Web Server Authentication
            X509v3 Key Usage: 
                Digital Signature, Key Encipherment
            X509v3 Subject Alternative Name: 
                DNS:vpnserver
    Signature Algorithm: sha256WithRSAEncryption
         e2:1d:51:f8:b8:80:1d:86:0c:53:26:05:79:5a:c5:18:a4:4e:
         3c:50:a2:bc:f0:af:ad:77:13:9f:2a:52:60:da:35:4e:62:0f:
         7b:f8:c6:03:40:5f:b8:87:b3:dc:1a:14:37:5e:d7:d8:be:4f:
         87:3b:7e:42:53:6f:06:4e:73:09:36:17:79:45:4c:09:11:d0:
         55:2b:5b:db:25:f0:87:7d:fb:9a:bd:23:91:88:b1:8d:89:7c:
         68:68:9c:c2:a8:f7:1b:df:7a:89:d3:2b:72:31:5b:94:65:ae:
         be:f8:e4:a3:6a:8c:77:e5:cd:a7:1f:6f:57:f1:ff:ba:a2:ac:
         23:ff:be:38:37:f3:91:ed:35:5a:79:b3:0b:2c:65:30:cc:d9:
         00:4b:97:71:81:5a:3c:fe:55:7c:d9:0e:55:54:cf:54:ac:33:
         2d:59:33:b5:df:cb:0c:ae:34:bf:86:14:28:cb:e0:c0:d4:94:
         f9:28:f4:33:7c:1b:e0:ab:44:ec:e5:ce:f2:3a:0c:c2:9c:ad:
         fe:d4:80:6d:58:08:52:43:3d:73:57:b9:cb:16:2c:81:15:a5:
         b4:51:88:03:12:26:f2:df:07:1b:1c:ef:47:8a:5e:32:7f:57:
         29:5a:e2:70:7d:37:0f:57:7d:61:f7:1f:0a:eb:20:31:30:c6:
         15:95:d2:9c
-----BEGIN CERTIFICATE-----
MIIDYzCCAkugAwIBAgIQTRNrfwEPYXfpHhhqy7rFNzANBgkqhkiG9w0BAQsFADAR
MQ8wDQYDVQQDDAZMZW9WUE4wHhcNMjAxMDEwMTgxOTUyWhcNMjMwMTEzMTgxOTUy
WjAUMRIwEAYDVQQDDAl2cG5zZXJ2ZXIwggEiMA0GCSqGSIb3DQEBAQUAA4IBDwAw
ggEKAoIBAQC+1CIfAWBOrT3DM3yiS5R+atGlBR+xgGzUvEipKU8LEFNi+aUma3Yx
PW0S2fhVIyMs3kczsSilrE5gCGSQzldZTRNmT/0l1ebFVea2bv5qwBPs8J93C8WZ
WHWZa+AwH+gNkQqFDOYhiidad3RLZMMOwqGBF4cwUtz6KEb2com7IQ43/2FwVUm6
xJ/b8PwD8cbX4Fs2KuJZ07r6o3/M5uW86+x2tYKMUeBvL7In5bleUEle00ARV3Ay
x6QiCcfx22k8ioEHAKJZAkFXMaTjemjsINTYgJ+0vzBDWR0t6zfsLzV6584xBxi2
2tMhdbWO3Ln/yHR0sf3asm9uxOssix4NAgMBAAGjgbMwgbAwCQYDVR0TBAIwADAd
BgNVHQ4EFgQUqCcNG/I3S2aENUYUTpPuVnxkUMEwTAYDVR0jBEUwQ4AU2GJqebOa
V+E0pv+6hVoezu3Ht5ShFaQTMBExDzANBgNVBAMMBkxlb1ZQToIUQAhPcsIs/zb/
lLyUYrgNFalkWwswEwYDVR0lBAwwCgYIKwYBBQUHAwEwCwYDVR0PBAQDAgWgMBQG
A1UdEQQNMAuCCXZwbnNlcnZlcjANBgkqhkiG9w0BAQsFAAOCAQEA4h1R+LiAHYYM
UyYFeVrFGKROPFCivPCvrXcTnypSYNo1TmIPe/jGA0BfuIez3BoUN17X2L5Phzt+
QlNvBk5zCTYXeUVMCRHQVStb2yXwh337mr0jkYixjYl8aGicwqj3G996idMrcjFb
lGWuvvjko2qMd+XNpx9vV/H/uqKsI/++ODfzke01WnmzCyxlMMzZAEuXcYFaPP5V
fNkOVVTPVKwzLVkztd/LDK40v4YUKMvgwNSU+Sj0M3wb4KtE7OXO8joMwpyt/tSA
bVgIUkM9c1e5yxYsgRWltFGIAxIm8t8HGxzvR4peMn9XKVricH03D1d9YfcfCusg
MTDGFZXSnA==
-----END CERTIFICATE-----
